target datalayout = "e-m:e-p270:32:32-p271:32:32-p272:64:64-i64:64-i128:128-f80:128-n8:16:32:64-S128"
target triple = "x86_64-pc-linux-gnu"

%struct.pointf_s = type { double, double }
%struct.boxf = type { %struct.pointf_s, %struct.pointf_s }
%struct.Agobj_s = type { %struct.Agtag_s, ptr }
%struct.Agtag_s = type { i32, i64 }
%struct.Agnodeinfo_t = type { %struct.Agrec_s, ptr, ptr, %struct.pointf_s, double, double, %struct.boxf, double, double, double, double, double, ptr, ptr, ptr, i8, i8, i8, i8, i32, i32, i32, ptr, double, i8, i8, ptr, ptr, i8, i64, i8, i8, i8, ptr, ptr, %struct.elist, %struct.elist, %struct.elist, %struct.elist, %struct.elist, ptr, i32, ptr, i32, i32, double, %struct.elist, %struct.elist, %struct.elist, %struct.elist, ptr, i32, i32, i32, [1 x double] }
%struct.Agrec_s = type { ptr, ptr }
%struct.elist = type { ptr, i64 }

@stderr = external global ptr, align 8
@.str.4 = private unnamed_addr constant [58 x i8] c"integer overflow when trying to allocate %zu * %zu bytes\0A\00", align 1
@.str.5 = private unnamed_addr constant [49 x i8] c"out of memory when trying to allocate %zu bytes\0A\00", align 1
@.str.6 = private unnamed_addr constant [13 x i8] c"samplepoints\00", align 1

; Function Attrs: inlinehint nounwind uwtable
define internal ptr @gv_calloc(i64 noundef %0, i64 noundef %1) #3 {
  %3 = alloca i64, align 8
  %4 = alloca i64, align 8
  %5 = alloca ptr, align 8
  store i64 %0, ptr %3, align 8, !tbaa !3
  store i64 %1, ptr %4, align 8, !tbaa !3
  %6 = load i64, ptr %3, align 8, !tbaa !3
  %7 = icmp ugt i64 %6, 0
  br i1 %7, label %8, label %18

8:                                                ; preds = %2
  %9 = load i64, ptr %3, align 8, !tbaa !3
  %10 = udiv i64 -1, %9
  %11 = load i64, ptr %4, align 8, !tbaa !3
  %12 = icmp ult i64 %10, %11
  br i1 %12, label %13, label %18

13:                                               ; preds = %8
  %14 = load ptr, ptr @stderr, align 8, !tbaa !63
  %15 = load i64, ptr %3, align 8, !tbaa !3
  %16 = load i64, ptr %4, align 8, !tbaa !3
  %17 = call i32 (ptr, ptr, ...) @fprintf(ptr noundef %14, ptr noundef @.str.4, i64 noundef %15, i64 noundef %16) #12
  call void @graphviz_exit(i32 noundef 1) #13
  unreachable

18:                                               ; preds = %8, %2
  call void @llvm.lifetime.start.p0(i64 8, ptr %5) #12
  %19 = load i64, ptr %3, align 8, !tbaa !3
  %20 = load i64, ptr %4, align 8, !tbaa !3
  %21 = call noalias ptr @calloc(i64 noundef %19, i64 noundef %20) #14
  store ptr %21, ptr %5, align 8, !tbaa !10
  %22 = load i64, ptr %3, align 8, !tbaa !3
  %23 = icmp ugt i64 %22, 0
  br i1 %23, label %24, label %36

24:                                               ; preds = %18
  %25 = load i64, ptr %4, align 8, !tbaa !3
  %26 = icmp ugt i64 %25, 0
  br i1 %26, label %27, label %36

27:                                               ; preds = %24
  %28 = load ptr, ptr %5, align 8, !tbaa !10
  %29 = icmp eq ptr %28, null
  br i1 %29, label %30, label %36

30:                                               ; preds = %27
  %31 = load ptr, ptr @stderr, align 8, !tbaa !63
  %32 = load i64, ptr %3, align 8, !tbaa !3
  %33 = load i64, ptr %4, align 8, !tbaa !3
  %34 = mul i64 %32, %33
  %35 = call i32 (ptr, ptr, ...) @fprintf(ptr noundef %31, ptr noundef @.str.5, i64 noundef %34) #12
  call void @graphviz_exit(i32 noundef 1) #13
  unreachable

36:                                               ; preds = %27, %24, %18
  %37 = load ptr, ptr %5, align 8, !tbaa !10
  call void @llvm.lifetime.end.p0(i64 8, ptr %5) #12
  ret ptr %37
}

; Function Attrs: inlinehint nounwind willreturn memory(read) uwtable
define available_externally i32 @atoi(ptr noundef nonnull %0) #11 {
  %2 = alloca ptr, align 8
  store ptr %0, ptr %2, align 8, !tbaa !65
  %3 = load ptr, ptr %2, align 8, !tbaa !65
  %4 = call i64 @strtol(ptr noundef %3, ptr noundef null, i32 noundef 10) #12
  %5 = trunc i64 %4 to i32
  ret i32 %5
}

; Function Attrs: nounwind uwtable
define internal ptr @genRound(ptr noundef %0, ptr noundef %1, double noundef %2, double noundef %3) #0 {
  %5 = alloca ptr, align 8
  %6 = alloca ptr, align 8
  %7 = alloca double, align 8
  %8 = alloca double, align 8
  %9 = alloca i64, align 8
  %10 = alloca ptr, align 8
  %11 = alloca i32, align 4
  %12 = alloca ptr, align 8
  %13 = alloca i64, align 8
  store ptr %0, ptr %5, align 8, !tbaa !16
  store ptr %1, ptr %6, align 8, !tbaa !66
  store double %2, ptr %7, align 8, !tbaa !18
  store double %3, ptr %8, align 8, !tbaa !18
  call void @llvm.lifetime.start.p0(i64 8, ptr %9) #12
  store i64 0, ptr %9, align 8, !tbaa !3
  call void @llvm.lifetime.start.p0(i64 8, ptr %10) #12
  %14 = load ptr, ptr %5, align 8, !tbaa !16
  %15 = call ptr @agget(ptr noundef %14, ptr noundef @.str.6)
  store ptr %15, ptr %10, align 8, !tbaa !65
  call void @llvm.lifetime.start.p0(i64 4, ptr %11) #12
  store i32 0, ptr %11, align 4, !tbaa !53
  %16 = load ptr, ptr %10, align 8, !tbaa !65
  %17 = icmp ne ptr %16, null
  br i1 %17, label %18, label %21

18:                                               ; preds = %4
  %19 = load ptr, ptr %10, align 8, !tbaa !65
  %20 = call i32 @atoi(ptr noundef %19) #15
  store i32 %20, ptr %11, align 4, !tbaa !53
  br label %21

21:                                               ; preds = %18, %4
  %22 = load i32, ptr %11, align 4, !tbaa !53
  %23 = icmp slt i32 %22, 3
  br i1 %23, label %24, label %25

24:                                               ; preds = %21
  br label %28

25:                                               ; preds = %21
  %26 = load i32, ptr %11, align 4, !tbaa !53
  %27 = sext i32 %26 to i64
  br label %28

28:                                               ; preds = %25, %24
  %29 = phi i64 [ 20, %24 ], [ %27, %25 ]
  store i64 %29, ptr %9, align 8, !tbaa !3
  call void @llvm.lifetime.start.p0(i64 8, ptr %12) #12
  %30 = load i64, ptr %9, align 8, !tbaa !3
  %31 = call ptr @gv_calloc(i64 noundef %30, i64 noundef 16)
  store ptr %31, ptr %12, align 8, !tbaa !7
  call void @llvm.lifetime.start.p0(i64 8, ptr %13) #12
  store i64 0, ptr %13, align 8, !tbaa !3
  br label %32

32:                                               ; preds = %80, %28
  %33 = load i64, ptr %13, align 8, !tbaa !3
  %34 = load i64, ptr %9, align 8, !tbaa !3
  %35 = icmp ult i64 %33, %34
  br i1 %35, label %37, label %36

36:                                               ; preds = %32
  call void @llvm.lifetime.end.p0(i64 8, ptr %13) #12
  br label %83

37:                                               ; preds = %32
  %38 = load ptr, ptr %5, align 8, !tbaa !16
  %39 = getelementptr inbounds nuw %struct.Agobj_s, ptr %38, i32 0, i32 1
  %40 = load ptr, ptr %39, align 8, !tbaa !19
  %41 = getelementptr inbounds nuw %struct.Agnodeinfo_t, ptr %40, i32 0, i32 4
  %42 = load double, ptr %41, align 8, !tbaa !36
  %43 = fdiv double %42, 2.000000e+00
  %44 = load double, ptr %7, align 8, !tbaa !18
  %45 = fadd double %43, %44
  %46 = load i64, ptr %13, align 8, !tbaa !3
  %47 = uitofp i64 %46 to double
  %48 = load i64, ptr %9, align 8, !tbaa !3
  %49 = uitofp i64 %48 to double
  %50 = fdiv double %47, %49
  %51 = fmul double %50, 0x400921FB54442D18
  %52 = fmul double %51, 2.000000e+00
  %53 = call double @cos(double noundef %52) #12, !tbaa !53
  %54 = fmul double %45, %53
  %55 = load ptr, ptr %12, align 8, !tbaa !7
  %56 = load i64, ptr %13, align 8, !tbaa !3
  %57 = getelementptr inbounds nuw %struct.pointf_s, ptr %55, i64 %56
  %58 = getelementptr inbounds nuw %struct.pointf_s, ptr %57, i32 0, i32 0
  store double %54, ptr %58, align 8, !tbaa !37
  %59 = load ptr, ptr %5, align 8, !tbaa !16
  %60 = getelementptr inbounds nuw %struct.Agobj_s, ptr %59, i32 0, i32 1
  %61 = load ptr, ptr %60, align 8, !tbaa !19
  %62 = getelementptr inbounds nuw %struct.Agnodeinfo_t, ptr %61, i32 0, i32 5
  %63 = load double, ptr %62, align 8, !tbaa !38
  %64 = fdiv double %63, 2.000000e+00
  %65 = load double, ptr %8, align 8, !tbaa !18
  %66 = fadd double %64, %65
  %67 = load i64, ptr %13, align 8, !tbaa !3
  %68 = uitofp i64 %67 to double
  %69 = load i64, ptr %9, align 8, !tbaa !3
  %70 = uitofp i64 %69 to double
  %71 = fdiv double %68, %70
  %72 = fmul double %71, 0x400921FB54442D18
  %73 = fmul double %72, 2.000000e+00
  %74 = call double @sin(double noundef %73) #12, !tbaa !53
  %75 = fmul double %66, %74
  %76 = load ptr, ptr %12, align 8, !tbaa !7
  %77 = load i64, ptr %13, align 8, !tbaa !3
  %78 = getelementptr inbounds nuw %struct.pointf_s, ptr %76, i64 %77
  %79 = getelementptr inbounds nuw %struct.pointf_s, ptr %78, i32 0, i32 1
  store double %75, ptr %79, align 8, !tbaa !39
  br label %80

80:                                               ; preds = %37
  %81 = load i64, ptr %13, align 8, !tbaa !3
  %82 = add i64 %81, 1
  store i64 %82, ptr %13, align 8, !tbaa !3
  br label %32, !llvm.loop !68

83:                                               ; preds = %36
  %84 = load i64, ptr %9, align 8, !tbaa !3
  %85 = load ptr, ptr %6, align 8, !tbaa !66
  store i64 %84, ptr %85, align 8, !tbaa !3
  %86 = load ptr, ptr %12, align 8, !tbaa !7
  call void @llvm.lifetime.end.p0(i64 8, ptr %12) #12
  call void @llvm.lifetime.end.p0(i64 4, ptr %11) #12
  call void @llvm.lifetime.end.p0(i64 8, ptr %10) #12
  call void @llvm.lifetime.end.p0(i64 8, ptr %9) #12
  ret ptr %86
}