; Function Attrs: nounwind uwtable
define internal fastcc noalias noundef ptr @genRound(ptr noundef %0, ptr noundef nonnull writeonly captures(none) %1, double noundef %2, double noundef %3) unnamed_addr #2 {
  %5 = tail call ptr @agget(ptr noundef %0, ptr noundef nonnull @.str.6) #14
  %.not = icmp eq ptr %5, null
  br i1 %.not, label %.thread28.thread, label %.thread28

.thread28:                                        ; preds = %4
  %6 = tail call i64 @strtol(ptr noundef nonnull captures(none) %5, ptr noundef null, i32 noundef 10) #14
  %.fr30 = freeze i64 %6
  %7 = trunc i64 %.fr30 to i32
  %8 = icmp slt i32 %7, 3
  %9 = and i64 %.fr30, 2147483647
  %spec.select = select i1 %8, i64 20, i64 %9
  %10 = tail call noalias ptr @calloc(i64 noundef %spec.select, i64 noundef 16) #15
  %11 = icmp eq ptr %10, null
  br i1 %11, label %27, label %gv_calloc.exit.preheader

.thread28.thread:                                 ; preds = %4
  %12 = tail call noalias dereferenceable_or_null(320) ptr @calloc(i64 noundef 20, i64 noundef 16) #15
  %13 = icmp eq ptr %12, null
  br i1 %13, label %27, label %.lr.ph

gv_calloc.exit.preheader:                         ; preds = %.thread28
  %.not32 = icmp eq i64 %spec.select, 0
  br i1 %.not32, label %gv_calloc.exit._crit_edge, label %.lr.ph

.lr.ph:                                           ; preds = %.thread28.thread, %gv_calloc.exit.preheader
  %14 = phi i64 [ %spec.select, %gv_calloc.exit.preheader ], [ 20, %.thread28.thread ]
  %15 = phi ptr [ %10, %gv_calloc.exit.preheader ], [ %12, %.thread28.thread ]
  %16 = getelementptr inbounds nuw i8, ptr %0, i64 16
  %17 = load ptr, ptr %16, align 8, !tbaa !15
  %18 = getelementptr inbounds nuw i8, ptr %17, i64 48
  %19 = load double, ptr %18, align 8, !tbaa !33
  %20 = fmul double %19, 5.000000e-01
  %21 = fadd double %2, %20
  %22 = uitofp nneg i64 %14 to double
  %23 = getelementptr inbounds nuw i8, ptr %17, i64 56
  %24 = load double, ptr %23, align 8, !tbaa !34
  %25 = fmul double %24, 5.000000e-01
  %26 = fadd double %3, %25
  br label %gv_calloc.exit

27:                                               ; preds = %.thread28.thread, %.thread28
  %28 = phi i64 [ 20, %.thread28.thread ], [ %spec.select, %.thread28 ]
  %29 = load ptr, ptr @stderr, align 8, !tbaa !36
  %30 = shl nuw nsw i64 %28, 4
  %31 = tail call i32 (ptr, ptr, ...) @fprintf(ptr noundef %29, ptr noundef nonnull @.str.5, i64 noundef %30) #16
  tail call fastcc void @graphviz_exit() #17
  unreachable

gv_calloc.exit._crit_edge:                        ; preds = %gv_calloc.exit, %gv_calloc.exit.preheader
  %32 = phi i64 [ 0, %gv_calloc.exit.preheader ], [ %14, %gv_calloc.exit ]
  %33 = phi ptr [ %10, %gv_calloc.exit.preheader ], [ %15, %gv_calloc.exit ]
  store i64 %32, ptr %1, align 8, !tbaa !3
  ret ptr %33

gv_calloc.exit:                                   ; preds = %.lr.ph, %gv_calloc.exit
  %.031 = phi i64 [ 0, %.lr.ph ], [ %44, %gv_calloc.exit ]
  %34 = uitofp nneg i64 %.031 to double
  %35 = fdiv double %34, %22
  %36 = fmul double %35, 0x400921FB54442D18
  %37 = fmul double %36, 2.000000e+00
  %38 = tail call double @cos(double noundef %37) #14, !tbaa !51
  %39 = fmul double %38, %21
  %40 = getelementptr inbounds nuw %struct.pointf_s, ptr %15, i64 %.031
  store double %39, ptr %40, align 8, !tbaa !38
  %41 = tail call double @sin(double noundef %37) #14, !tbaa !51
  %42 = fmul double %41, %26
  %43 = getelementptr inbounds nuw i8, ptr %40, i64 8
  store double %42, ptr %43, align 8, !tbaa !39
  %44 = add nuw nsw i64 %.031, 1
  %exitcond.not = icmp eq i64 %44, %14
  br i1 %exitcond.not, label %gv_calloc.exit._crit_edge, label %gv_calloc.exit, !llvm.loop !57
}